; Function Attrs: mustprogress nofree norecurse nosync nounwind willreturn memory(read, argmem: readwrite, inaccessiblemem: none) uwtable
define range(i32 -1094995529, 1) i32 @avpriv_dca_parse_core_frame_header(ptr noundef writeonly captures(none) %0, ptr noundef %1, i32 noundef %2) local_unnamed_addr #3 {
  %4 = alloca %struct.GetBitContext, align 8
  call void @llvm.lifetime.start.p0(i64 32, ptr nonnull %4) #7
  %or.cond.i = icmp ugt i32 %2, 268435455
  %5 = shl nuw nsw i32 %2, 3
  %6 = select i1 %or.cond.i, i32 -8, i32 %5
  %or.cond.i.i = icmp ult i32 %6, 2147483135
  %7 = icmp ne ptr %1, null
  %or.cond3.i.i = and i1 %7, %or.cond.i.i
  %.018.i.i = select i1 %or.cond3.i.i, i32 %6, i32 0
  %.017.i.i = select i1 %or.cond.i.i, ptr %1, ptr null
  %8 = lshr exact i32 %.018.i.i, 3
  store ptr %.017.i.i, ptr %4, align 8, !tbaa !17
  %9 = getelementptr inbounds nuw i8, ptr %4, i64 20
  store i32 %.018.i.i, ptr %9, align 4, !tbaa !45
  %10 = add nuw nsw i32 %.018.i.i, 8
  %11 = getelementptr inbounds nuw i8, ptr %4, i64 24
  store i32 %10, ptr %11, align 8, !tbaa !16
  %12 = zext nneg i32 %8 to i64
  %13 = getelementptr inbounds nuw i8, ptr %.017.i.i, i64 %12
  %14 = getelementptr inbounds nuw i8, ptr %4, i64 8
  store ptr %13, ptr %14, align 8, !tbaa !46
  %15 = getelementptr inbounds nuw i8, ptr %4, i64 16
  store i32 0, ptr %15, align 8, !tbaa !11
  br i1 %or.cond3.i.i, label %16, label %19

16:                                               ; preds = %3
  %17 = call i32 @ff_dca_parse_core_frame_header(ptr noundef %0, ptr noundef nonnull %4)
  %18 = icmp slt i32 %17, 0
  %. = select i1 %18, i32 -1094995529, i32 0
  br label %19

19:                                               ; preds = %16, %3
  %.0 = phi i32 [ -1094995529, %3 ], [ %., %16 ]
  call void @llvm.lifetime.end.p0(i64 32, ptr nonnull %4) #7
  ret i32 %.0
}